target datalayout = "e-m:e-p270:32:32-p271:32:32-p272:64:64-i64:64-i128:128-f80:128-n8:16:32:64-S128"
target triple = "x86_64-pc-linux-gnu"

%"struct.cv::softdouble" = type { i64 }

; Function Attrs: mustprogress nounwind uwtable
define linkonce_odr hidden void @_ZN2cv10softdoubleC2Ev(ptr noundef nonnull align 8 dereferenceable(8) %0) unnamed_addr #1 comdat align 2 {
  %2 = alloca ptr, align 8
  store ptr %0, ptr %2, align 8
  %3 = load ptr, ptr %2, align 8
  %4 = getelementptr inbounds %"struct.cv::softdouble", ptr %3, i32 0, i32 0
  store i64 0, ptr %4, align 8
  ret void
}

; Function Attrs: mustprogress uwtable
define linkonce_odr hidden void @_ZN2cv10softdouble7fromRawEm(ptr dead_on_unwind noalias writable sret(%"struct.cv::softdouble") align 8 %0, i64 noundef %1) #0 comdat align 2 {
  %3 = alloca ptr, align 8
  %4 = alloca i64, align 8
  store ptr %0, ptr %3, align 8
  store i64 %1, ptr %4, align 8
  call void @_ZN2cv10softdoubleC2Ev(ptr noundef nonnull align 8 dereferenceable(8) %0)
  %5 = load i64, ptr %4, align 8
  %6 = getelementptr inbounds %"struct.cv::softdouble", ptr %0, i32 0, i32 0
  store i64 %5, ptr %6, align 8
  ret void
}

; Function Attrs: mustprogress nounwind uwtable
define internal noundef i64 @_ZN2cvL27softfloat_propagateNaNF64UIEmm(i64 noundef %0, i64 noundef %1) #1 {
  %3 = alloca i64, align 8
  %4 = alloca i64, align 8
  %5 = alloca i64, align 8
  %6 = alloca i8, align 1
  store i64 %0, ptr %4, align 8
  store i64 %1, ptr %5, align 8
  %7 = load i64, ptr %4, align 8
  %8 = and i64 %7, 9221120237041090560
  %9 = icmp eq i64 %8, 9218868437227405312
  br i1 %9, label %10, label %14

10:                                               ; preds = %2
  %11 = load i64, ptr %4, align 8
  %12 = and i64 %11, 2251799813685247
  %13 = icmp ne i64 %12, 0
  br label %14

14:                                               ; preds = %10, %2
  %15 = phi i1 [ false, %2 ], [ %13, %10 ]
  %16 = zext i1 %15 to i8
  store i8 %16, ptr %6, align 1
  %17 = load i8, ptr %6, align 1
  %18 = trunc i8 %17 to i1
  br i1 %18, label %27, label %19

19:                                               ; preds = %14
  %20 = load i64, ptr %5, align 8
  %21 = and i64 %20, 9221120237041090560
  %22 = icmp eq i64 %21, 9218868437227405312
  br i1 %22, label %23, label %34

23:                                               ; preds = %19
  %24 = load i64, ptr %5, align 8
  %25 = and i64 %24, 2251799813685247
  %26 = icmp ne i64 %25, 0
  br i1 %26, label %27, label %34

27:                                               ; preds = %23, %14
  call void @_ZN2cvL10raiseFlagsEh(i8 noundef zeroext 16)
  %28 = load i8, ptr %6, align 1
  %29 = trunc i8 %28 to i1
  br i1 %29, label %30, label %33

30:                                               ; preds = %27
  %31 = load i64, ptr %4, align 8
  %32 = or i64 %31, 2251799813685248
  store i64 %32, ptr %3, align 8
  br label %50

33:                                               ; preds = %27
  br label %34

34:                                               ; preds = %33, %23, %19
  %35 = load i64, ptr %4, align 8
  %36 = xor i64 %35, -1
  %37 = and i64 %36, 9218868437227405312
  %38 = icmp eq i64 %37, 0
  br i1 %38, label %39, label %45

39:                                               ; preds = %34
  %40 = load i64, ptr %4, align 8
  %41 = and i64 %40, 4503599627370495
  %42 = icmp ne i64 %41, 0
  br i1 %42, label %43, label %45

43:                                               ; preds = %39
  %44 = load i64, ptr %4, align 8
  br label %47

45:                                               ; preds = %39, %34
  %46 = load i64, ptr %5, align 8
  br label %47

47:                                               ; preds = %45, %43
  %48 = phi i64 [ %44, %43 ], [ %46, %45 ]
  %49 = or i64 %48, 2251799813685248
  store i64 %49, ptr %3, align 8
  br label %50

50:                                               ; preds = %47, %30
  %51 = load i64, ptr %3, align 8
  ret i64 %51
}

; Function Attrs: mustprogress nounwind uwtable
define internal noundef i64 @_ZN2cvL25softfloat_shiftRightJam64Emm(i64 noundef %0, i64 noundef %1) #1 {
  %3 = alloca i64, align 8
  %4 = alloca i64, align 8
  store i64 %0, ptr %3, align 8
  store i64 %1, ptr %4, align 8
  %5 = load i64, ptr %4, align 8
  %6 = icmp ult i64 %5, 63
  br i1 %6, label %7, label %20

7:                                                ; preds = %2
  %8 = load i64, ptr %3, align 8
  %9 = load i64, ptr %4, align 8
  %10 = lshr i64 %8, %9
  %11 = load i64, ptr %3, align 8
  %12 = load i64, ptr %4, align 8
  %13 = xor i64 %12, -1
  %14 = add i64 %13, 1
  %15 = and i64 %14, 63
  %16 = shl i64 %11, %15
  %17 = icmp ne i64 %16, 0
  %18 = zext i1 %17 to i64
  %19 = or i64 %10, %18
  br label %24

20:                                               ; preds = %2
  %21 = load i64, ptr %3, align 8
  %22 = icmp ne i64 %21, 0
  %23 = zext i1 %22 to i64
  br label %24

24:                                               ; preds = %20, %7
  %25 = phi i64 [ %19, %7 ], [ %23, %20 ]
  ret i64 %25
}

; Function Attrs: mustprogress nounwind uwtable
define internal noundef zeroext i8 @_ZN2cvL29softfloat_countLeadingZeros64Em(i64 noundef %0) #1 {
  %2 = alloca i64, align 8
  %3 = alloca i8, align 1
  %4 = alloca i32, align 4
  store i64 %0, ptr %2, align 8
  store i8 0, ptr %3, align 1
  %5 = load i64, ptr %2, align 8
  %6 = lshr i64 %5, 32
  %7 = trunc i64 %6 to i32
  store i32 %7, ptr %4, align 4
  %8 = load i32, ptr %4, align 4
  %9 = icmp ne i32 %8, 0
  br i1 %9, label %13, label %10

10:                                               ; preds = %1
  store i8 32, ptr %3, align 1
  %11 = load i64, ptr %2, align 8
  %12 = trunc i64 %11 to i32
  store i32 %12, ptr %4, align 4
  br label %13

13:                                               ; preds = %10, %1
  %14 = load i32, ptr %4, align 4
  %15 = icmp ult i32 %14, 65536
  br i1 %15, label %16, label %23

16:                                               ; preds = %13
  %17 = load i8, ptr %3, align 1
  %18 = zext i8 %17 to i32
  %19 = add nsw i32 %18, 16
  %20 = trunc i32 %19 to i8
  store i8 %20, ptr %3, align 1
  %21 = load i32, ptr %4, align 4
  %22 = shl i32 %21, 16
  store i32 %22, ptr %4, align 4
  br label %23

23:                                               ; preds = %16, %13
  %24 = load i32, ptr %4, align 4
  %25 = icmp ult i32 %24, 16777216
  br i1 %25, label %26, label %33

26:                                               ; preds = %23
  %27 = load i8, ptr %3, align 1
  %28 = zext i8 %27 to i32
  %29 = add nsw i32 %28, 8
  %30 = trunc i32 %29 to i8
  store i8 %30, ptr %3, align 1
  %31 = load i32, ptr %4, align 4
  %32 = shl i32 %31, 8
  store i32 %32, ptr %4, align 4
  br label %33

33:                                               ; preds = %26, %23
  %34 = load i32, ptr %4, align 4
  %35 = lshr i32 %34, 24
  %36 = zext i32 %35 to i64
  %37 = getelementptr inbounds [256 x i8], ptr @_ZN2cvL28softfloat_countLeadingZeros8E, i64 0, i64 %36
  %38 = load i8, ptr %37, align 1
  %39 = zext i8 %38 to i32
  %40 = load i8, ptr %3, align 1
  %41 = zext i8 %40 to i32
  %42 = add nsw i32 %41, %39
  %43 = trunc i32 %42 to i8
  store i8 %43, ptr %3, align 1
  %44 = load i8, ptr %3, align 1
  ret i8 %44
}

; Function Attrs: mustprogress nounwind uwtable
define internal void @_ZN2cvL10raiseFlagsEh(i8 noundef zeroext %0) #1 {
  %2 = alloca i8, align 1
  store i8 %0, ptr %2, align 1
  ret void
}

; Function Attrs: mustprogress uwtable
define internal void @_ZN2cvL20softfloat_subMagsF64Emmb(ptr dead_on_unwind noalias writable sret(%"struct.cv::softdouble") align 8 %0, i64 noundef %1, i64 noundef %2, i1 noundef zeroext %3) #0 {
  %5 = alloca ptr, align 8
  %6 = alloca i64, align 8
  %7 = alloca i64, align 8
  %8 = alloca i8, align 1
  %9 = alloca i64, align 8
  %10 = alloca i64, align 8
  %11 = alloca i64, align 8
  %12 = alloca i64, align 8
  %13 = alloca i64, align 8
  %14 = alloca i64, align 8
  %15 = alloca i64, align 8
  %16 = alloca i8, align 1
  %17 = alloca i64, align 8
  %18 = alloca i64, align 8
  store ptr %0, ptr %5, align 8
  store i64 %1, ptr %6, align 8
  store i64 %2, ptr %7, align 8
  %19 = zext i1 %3 to i8
  store i8 %19, ptr %8, align 1
  %20 = load i64, ptr %6, align 8
  %21 = lshr i64 %20, 52
  %22 = and i64 %21, 2047
  store i64 %22, ptr %9, align 8
  %23 = load i64, ptr %6, align 8
  %24 = and i64 %23, 4503599627370495
  store i64 %24, ptr %10, align 8
  %25 = load i64, ptr %7, align 8
  %26 = lshr i64 %25, 52
  %27 = and i64 %26, 2047
  store i64 %27, ptr %11, align 8
  %28 = load i64, ptr %7, align 8
  %29 = and i64 %28, 4503599627370495
  store i64 %29, ptr %12, align 8
  %30 = load i64, ptr %9, align 8
  %31 = load i64, ptr %11, align 8
  %32 = sub nsw i64 %30, %31
  store i64 %32, ptr %13, align 8
  %33 = load i64, ptr %13, align 8
  %34 = icmp ne i64 %33, 0
  br i1 %34, label %97, label %35

35:                                               ; preds = %4
  %36 = load i64, ptr %9, align 8
  %37 = icmp eq i64 %36, 2047
  br i1 %37, label %38, label %45

38:                                               ; preds = %35
  %39 = load i64, ptr %10, align 8
  %40 = load i64, ptr %12, align 8
  %41 = or i64 %39, %40
  %42 = icmp ne i64 %41, 0
  br i1 %42, label %43, label %44

43:                                               ; preds = %38
  br label %176

44:                                               ; preds = %38
  call void @_ZN2cvL10raiseFlagsEh(i8 noundef zeroext 16)
  store i64 -2251799813685248, ptr %14, align 8
  br label %180

45:                                               ; preds = %35
  %46 = load i64, ptr %10, align 8
  %47 = load i64, ptr %12, align 8
  %48 = sub i64 %46, %47
  store i64 %48, ptr %15, align 8
  %49 = load i64, ptr %15, align 8
  %50 = icmp ne i64 %49, 0
  br i1 %50, label %52, label %51

51:                                               ; preds = %45
  store i64 0, ptr %14, align 8
  br label %180

52:                                               ; preds = %45
  %53 = load i64, ptr %9, align 8
  %54 = icmp ne i64 %53, 0
  br i1 %54, label %55, label %58

55:                                               ; preds = %52
  %56 = load i64, ptr %9, align 8
  %57 = add nsw i64 %56, -1
  store i64 %57, ptr %9, align 8
  br label %58

58:                                               ; preds = %55, %52
  %59 = load i64, ptr %15, align 8
  %60 = icmp slt i64 %59, 0
  br i1 %60, label %61, label %68

61:                                               ; preds = %58
  %62 = load i8, ptr %8, align 1
  %63 = trunc i8 %62 to i1
  %64 = xor i1 %63, true
  %65 = zext i1 %64 to i8
  store i8 %65, ptr %8, align 1
  %66 = load i64, ptr %15, align 8
  %67 = sub nsw i64 0, %66
  store i64 %67, ptr %15, align 8
  br label %68

68:                                               ; preds = %61, %58
  %69 = load i64, ptr %15, align 8
  %70 = call noundef zeroext i8 @_ZN2cvL29softfloat_countLeadingZeros64Em(i64 noundef %69)
  %71 = zext i8 %70 to i32
  %72 = sub nsw i32 %71, 11
  %73 = trunc i32 %72 to i8
  store i8 %73, ptr %16, align 1
  %74 = load i64, ptr %9, align 8
  %75 = load i8, ptr %16, align 1
  %76 = sext i8 %75 to i64
  %77 = sub nsw i64 %74, %76
  store i64 %77, ptr %17, align 8
  %78 = load i64, ptr %17, align 8
  %79 = icmp slt i64 %78, 0
  br i1 %79, label %80, label %83

80:                                               ; preds = %68
  %81 = load i64, ptr %9, align 8
  %82 = trunc i64 %81 to i8
  store i8 %82, ptr %16, align 1
  store i64 0, ptr %17, align 8
  br label %83

83:                                               ; preds = %80, %68
  %84 = load i8, ptr %8, align 1
  %85 = trunc i8 %84 to i1
  %86 = zext i1 %85 to i64
  %87 = shl i64 %86, 63
  %88 = load i64, ptr %17, align 8
  %89 = shl i64 %88, 52
  %90 = add i64 %87, %89
  %91 = load i64, ptr %15, align 8
  %92 = load i8, ptr %16, align 1
  %93 = sext i8 %92 to i32
  %94 = zext i32 %93 to i64
  %95 = shl i64 %91, %94
  %96 = add i64 %90, %95
  store i64 %96, ptr %14, align 8
  br label %180

97:                                               ; preds = %4
  %98 = load i64, ptr %10, align 8
  %99 = shl i64 %98, 10
  store i64 %99, ptr %10, align 8
  %100 = load i64, ptr %12, align 8
  %101 = shl i64 %100, 10
  store i64 %101, ptr %12, align 8
  %102 = load i64, ptr %13, align 8
  %103 = icmp slt i64 %102, 0
  br i1 %103, label %104, label %142

104:                                              ; preds = %97
  %105 = load i8, ptr %8, align 1
  %106 = trunc i8 %105 to i1
  %107 = xor i1 %106, true
  %108 = zext i1 %107 to i8
  store i8 %108, ptr %8, align 1
  %109 = load i64, ptr %11, align 8
  %110 = icmp eq i64 %109, 2047
  br i1 %110, label %111, label %122

111:                                              ; preds = %104
  %112 = load i64, ptr %12, align 8
  %113 = icmp ne i64 %112, 0
  br i1 %113, label %114, label %115

114:                                              ; preds = %111
  br label %176

115:                                              ; preds = %111
  %116 = load i8, ptr %8, align 1
  %117 = trunc i8 %116 to i1
  %118 = zext i1 %117 to i64
  %119 = shl i64 %118, 63
  %120 = add i64 %119, 9218868437227405312
  %121 = add i64 %120, 0
  store i64 %121, ptr %14, align 8
  br label %180

122:                                              ; preds = %104
  %123 = load i64, ptr %9, align 8
  %124 = icmp ne i64 %123, 0
  br i1 %124, label %125, label %126

125:                                              ; preds = %122
  br label %128

126:                                              ; preds = %122
  %127 = load i64, ptr %10, align 8
  br label %128

128:                                              ; preds = %126, %125
  %129 = phi i64 [ 4611686018427387904, %125 ], [ %127, %126 ]
  %130 = load i64, ptr %10, align 8
  %131 = add i64 %130, %129
  store i64 %131, ptr %10, align 8
  %132 = load i64, ptr %10, align 8
  %133 = load i64, ptr %13, align 8
  %134 = sub nsw i64 0, %133
  %135 = call noundef i64 @_ZN2cvL25softfloat_shiftRightJam64Emm(i64 noundef %132, i64 noundef %134)
  store i64 %135, ptr %10, align 8
  %136 = load i64, ptr %12, align 8
  %137 = or i64 %136, 4611686018427387904
  store i64 %137, ptr %12, align 8
  %138 = load i64, ptr %11, align 8
  store i64 %138, ptr %17, align 8
  %139 = load i64, ptr %12, align 8
  %140 = load i64, ptr %10, align 8
  %141 = sub i64 %139, %140
  store i64 %141, ptr %18, align 8
  br label %170

142:                                              ; preds = %97
  %143 = load i64, ptr %9, align 8
  %144 = icmp eq i64 %143, 2047
  br i1 %144, label %145, label %151

145:                                              ; preds = %142
  %146 = load i64, ptr %10, align 8
  %147 = icmp ne i64 %146, 0
  br i1 %147, label %148, label %149

148:                                              ; preds = %145
  br label %176

149:                                              ; preds = %145
  %150 = load i64, ptr %6, align 8
  store i64 %150, ptr %14, align 8
  br label %180

151:                                              ; preds = %142
  %152 = load i64, ptr %11, align 8
  %153 = icmp ne i64 %152, 0
  br i1 %153, label %154, label %155

154:                                              ; preds = %151
  br label %157

155:                                              ; preds = %151
  %156 = load i64, ptr %12, align 8
  br label %157

157:                                              ; preds = %155, %154
  %158 = phi i64 [ 4611686018427387904, %154 ], [ %156, %155 ]
  %159 = load i64, ptr %12, align 8
  %160 = add i64 %159, %158
  store i64 %160, ptr %12, align 8
  %161 = load i64, ptr %12, align 8
  %162 = load i64, ptr %13, align 8
  %163 = call noundef i64 @_ZN2cvL25softfloat_shiftRightJam64Emm(i64 noundef %161, i64 noundef %162)
  store i64 %163, ptr %12, align 8
  %164 = load i64, ptr %10, align 8
  %165 = or i64 %164, 4611686018427387904
  store i64 %165, ptr %10, align 8
  %166 = load i64, ptr %9, align 8
  store i64 %166, ptr %17, align 8
  %167 = load i64, ptr %10, align 8
  %168 = load i64, ptr %12, align 8
  %169 = sub i64 %167, %168
  store i64 %169, ptr %18, align 8
  br label %170

170:                                              ; preds = %157, %128
  %171 = load i8, ptr %8, align 1
  %172 = trunc i8 %171 to i1
  %173 = load i64, ptr %17, align 8
  %174 = sub nsw i64 %173, 1
  %175 = load i64, ptr %18, align 8
  call void @_ZN2cvL28softfloat_normRoundPackToF64Eblm(ptr dead_on_unwind writable sret(%"struct.cv::softdouble") align 8 %0, i1 noundef zeroext %172, i64 noundef %174, i64 noundef %175)
  br label %182

176:                                              ; preds = %148, %114, %43
  %177 = load i64, ptr %6, align 8
  %178 = load i64, ptr %7, align 8
  %179 = call noundef i64 @_ZN2cvL27softfloat_propagateNaNF64UIEmm(i64 noundef %177, i64 noundef %178)
  store i64 %179, ptr %14, align 8
  br label %180

180:                                              ; preds = %176, %149, %115, %83, %51, %44
  %181 = load i64, ptr %14, align 8
  call void @_ZN2cv10softdouble7fromRawEm(ptr dead_on_unwind writable sret(%"struct.cv::softdouble") align 8 %0, i64 noundef %181)
  br label %182

182:                                              ; preds = %180, %170
  ret void
}