; Function Attrs: mustprogress nofree norecurse nosync nounwind willreturn memory(argmem: write) uwtable
define internal fastcc void @_ZN2cvL20softfloat_subMagsF64Emmb(ptr dead_on_unwind noalias nocapture writable writeonly align 8 %0, i64 noundef %1, i64 noundef %2, i1 noundef zeroext %3) unnamed_addr #0 {
  %5 = lshr i64 %1, 52
  %6 = and i64 %5, 2047
  %7 = and i64 %1, 4503599627370495
  %8 = lshr i64 %2, 52
  %9 = and i64 %8, 2047
  %10 = and i64 %2, 4503599627370495
  %11 = sub nsw i64 %6, %9
  %.not = icmp eq i64 %6, %9
  br i1 %.not, label %12, label %48

12:                                               ; preds = %4
  %13 = icmp eq i64 %6, 2047
  br i1 %13, label %14, label %16

14:                                               ; preds = %12
  %15 = or i64 %10, %7
  %.not76 = icmp eq i64 %15, 0
  br i1 %.not76, label %104, label %94

16:                                               ; preds = %12
  %17 = sub nsw i64 %7, %10
  %.not74 = icmp eq i64 %17, 0
  br i1 %.not74, label %104, label %18

18:                                               ; preds = %16
  %spec.select = tail call i64 @llvm.usub.sat.i64(i64 %6, i64 1)
  %19 = icmp slt i64 %17, 0
  br i1 %19, label %20, label %23

20:                                               ; preds = %18
  %21 = xor i1 %3, true
  %22 = sub nsw i64 0, %17
  br label %23

23:                                               ; preds = %20, %18
  %.065 = phi i1 [ %21, %20 ], [ %3, %18 ]
  %.063 = phi i64 [ %22, %20 ], [ %17, %18 ]
  %24 = lshr i64 %.063, 32
  %.not.i = icmp ult i64 %.063, 4294967296
  %spec.select.i = select i1 %.not.i, i8 32, i8 0
  %spec.select16.i = select i1 %.not.i, i64 %.063, i64 %24
  %.0.i = trunc nuw i64 %spec.select16.i to i32
  %25 = icmp ult i64 %spec.select16.i, 65536
  %26 = or disjoint i8 %spec.select.i, 16
  %27 = shl nuw i32 %.0.i, 16
  %.113.i = select i1 %25, i8 %26, i8 %spec.select.i
  %.1.i = select i1 %25, i32 %27, i32 %.0.i
  %28 = icmp ult i32 %.1.i, 16777216
  %29 = or disjoint i8 %.113.i, 8
  %30 = shl nuw i32 %.1.i, 8
  %.214.i = select i1 %28, i8 %29, i8 %.113.i
  %.2.i = select i1 %28, i32 %30, i32 %.1.i
  %31 = lshr i32 %.2.i, 24
  %32 = zext nneg i32 %31 to i64
  %33 = getelementptr inbounds [256 x i8], ptr @_ZN2cvL28softfloat_countLeadingZeros8E, i64 0, i64 %32
  %34 = load i8, ptr %33, align 1
  %35 = add i8 %34, -11
  %36 = add i8 %35, %.214.i
  %37 = sext i8 %36 to i64
  %38 = sub nsw i64 %spec.select, %37
  %39 = icmp slt i64 %38, 0
  %40 = trunc i64 %spec.select to i8
  %spec.select81 = select i1 %39, i8 %40, i8 %36
  %spec.select82 = tail call i64 @llvm.smax.i64(i64 %38, i64 0)
  %41 = select i1 %.065, i64 -9223372036854775808, i64 0
  %42 = shl nuw i64 %spec.select82, 52
  %43 = add i64 %42, %41
  %44 = sext i8 %spec.select81 to i64
  %45 = and i64 %44, 4294967295
  %46 = shl i64 %.063, %45
  %47 = add i64 %43, %46
  br label %104

48:                                               ; preds = %4
  %49 = shl nuw nsw i64 %7, 10
  %50 = shl nuw nsw i64 %10, 10
  %51 = icmp slt i64 %11, 0
  br i1 %51, label %52, label %73

52:                                               ; preds = %48
  %53 = icmp eq i64 %9, 2047
  br i1 %53, label %54, label %57

54:                                               ; preds = %52
  %.not80 = icmp eq i64 %10, 0
  br i1 %.not80, label %55, label %94

55:                                               ; preds = %54
  %56 = select i1 %3, i64 9218868437227405312, i64 -4503599627370496
  br label %104

57:                                               ; preds = %52
  %58 = xor i1 %3, true
  %.not79 = icmp eq i64 %6, 0
  %59 = select i1 %.not79, i64 %49, i64 4611686018427387904
  %60 = add nuw nsw i64 %59, %49
  %61 = sub nsw i64 0, %11
  %62 = icmp ult i64 %61, 63
  br i1 %62, label %63, label %70

63:                                               ; preds = %57
  %64 = lshr i64 %60, %61
  %65 = and i64 %11, 63
  %66 = shl i64 %60, %65
  %67 = icmp ne i64 %66, 0
  %68 = zext i1 %67 to i64
  %69 = or i64 %64, %68
  br label %_ZN2cvL25softfloat_shiftRightJam64Emm.exit

70:                                               ; preds = %57
  %71 = icmp ne i64 %60, 0
  %72 = zext i1 %71 to i64
  br label %_ZN2cvL25softfloat_shiftRightJam64Emm.exit

73:                                               ; preds = %48
  %74 = icmp eq i64 %6, 2047
  br i1 %74, label %75, label %76

75:                                               ; preds = %73
  %.not78 = icmp eq i64 %7, 0
  br i1 %.not78, label %104, label %94

76:                                               ; preds = %73
  %.not77 = icmp eq i64 %9, 0
  %77 = select i1 %.not77, i64 %50, i64 4611686018427387904
  %78 = add nuw nsw i64 %77, %50
  %79 = icmp ult i64 %11, 63
  br i1 %79, label %80, label %88

80:                                               ; preds = %76
  %81 = lshr i64 %78, %11
  %82 = sub nsw i64 0, %11
  %83 = and i64 %82, 63
  %84 = shl i64 %78, %83
  %85 = icmp ne i64 %84, 0
  %86 = zext i1 %85 to i64
  %87 = or i64 %81, %86
  br label %_ZN2cvL25softfloat_shiftRightJam64Emm.exit

88:                                               ; preds = %76
  %89 = icmp ne i64 %78, 0
  %90 = zext i1 %89 to i64
  br label %_ZN2cvL25softfloat_shiftRightJam64Emm.exit

_ZN2cvL25softfloat_shiftRightJam64Emm.exit:       ; preds = %88, %80, %70, %63
  %.sink87 = phi i64 [ %50, %63 ], [ %50, %70 ], [ %49, %80 ], [ %49, %88 ]
  %.sink86 = phi i64 [ %69, %63 ], [ %72, %70 ], [ %87, %80 ], [ %90, %88 ]
  %.166.in = phi i1 [ %58, %63 ], [ %58, %70 ], [ %3, %80 ], [ %3, %88 ]
  %.1 = phi i64 [ %9, %63 ], [ %9, %70 ], [ %6, %80 ], [ %6, %88 ]
  %91 = or disjoint i64 %.sink87, 4611686018427387904
  %92 = sub nsw i64 %91, %.sink86
  %93 = add nsw i64 %.1, -1
  tail call fastcc void @_ZN2cvL28softfloat_normRoundPackToF64Eblm(ptr dead_on_unwind noalias writable align 8 %0, i1 noundef zeroext %.166.in, i64 noundef %93, i64 noundef %92)
  br label %105

94:                                               ; preds = %75, %54, %14
  %95 = and i64 %1, 9221120237041090560
  %96 = icmp eq i64 %95, 9218868437227405312
  %97 = and i64 %1, 2251799813685247
  %98 = icmp ne i64 %97, 0
  %99 = and i1 %96, %98
  br i1 %99, label %_ZN2cvL27softfloat_propagateNaNF64UIEmm.exit, label %100

100:                                              ; preds = %94
  %101 = and i64 %1, 9218868437227405312
  %102 = icmp ne i64 %101, 9218868437227405312
  %.not12.i = icmp eq i64 %7, 0
  %or.cond13.i = or i1 %102, %.not12.i
  %103 = select i1 %or.cond13.i, i64 %2, i64 %1
  br label %_ZN2cvL27softfloat_propagateNaNF64UIEmm.exit

_ZN2cvL27softfloat_propagateNaNF64UIEmm.exit:     ; preds = %94, %100
  %.0.in.i = phi i64 [ %103, %100 ], [ %1, %94 ]
  %.0.i84 = or i64 %.0.in.i, 2251799813685248
  br label %104

104:                                              ; preds = %14, %75, %16, %_ZN2cvL27softfloat_propagateNaNF64UIEmm.exit, %55, %23
  %.064 = phi i64 [ %.0.i84, %_ZN2cvL27softfloat_propagateNaNF64UIEmm.exit ], [ %56, %55 ], [ %47, %23 ], [ 0, %16 ], [ %1, %75 ], [ -2251799813685248, %14 ]
  store i64 %.064, ptr %0, align 8, !alias.scope !545
  br label %105

105:                                              ; preds = %104, %_ZN2cvL25softfloat_shiftRightJam64Emm.exit
  ret void
}